; Function Attrs: mustprogress nofree norecurse nosync nounwind willreturn memory(argmem: readwrite) uwtable
define hidden void @_ZN10ClipperLib11ClipperBase22DisposeLocalMinimaListEv(ptr nocapture noundef nonnull align 8 dereferenceable(144) %this) local_unnamed_addr #7 align 2 personality ptr @__gxx_personality_v0 {
entry:
  %m_MinimaList = getelementptr inbounds i8, ptr %this, i64 16
  %0 = load ptr, ptr %m_MinimaList, align 8
  %_M_finish.i.i = getelementptr inbounds i8, ptr %this, i64 24
  %1 = load ptr, ptr %_M_finish.i.i, align 8
  %tobool.not.i.i = icmp eq ptr %1, %0
  br i1 %tobool.not.i.i, label %_ZNSt6vectorIN10ClipperLib12LocalMinimumESaIS1_EE5clearEv.exit, label %invoke.cont.i.i

invoke.cont.i.i:                                  ; preds = %entry
  store ptr %0, ptr %_M_finish.i.i, align 8
  br label %_ZNSt6vectorIN10ClipperLib12LocalMinimumESaIS1_EE5clearEv.exit

_ZNSt6vectorIN10ClipperLib12LocalMinimumESaIS1_EE5clearEv.exit: ; preds = %entry, %invoke.cont.i.i
  %m_CurrentLM = getelementptr inbounds i8, ptr %this, i64 8
  store ptr %0, ptr %m_CurrentLM, align 8
  ret void
}